; Function Attrs: mustprogress nofree norecurse nosync nounwind willreturn memory(argmem: write) uwtable
define void @_ZN29MLPoliciesStandAloneFunctions34fromMeshModelMaskToMLRenderingAttsEiRN3vcg20GLMeshAttributesInfo13RenderingAttsINS1_9ATT_NAMESEEE(i32 noundef %0, ptr nocapture noundef nonnull writeonly align 1 dereferenceable(7) %1) local_unnamed_addr #11 align 2 personality ptr @__gxx_personality_v0 {
  %3 = trunc i32 %0 to i8
  %4 = and i8 %3, 1
  store i8 %4, ptr %1, align 1
  %5 = getelementptr inbounds i8, ptr %1, i64 1
  %6 = lshr i8 %3, 1
  %7 = and i8 %6, 1
  store i8 %7, ptr %5, align 1
  %8 = getelementptr inbounds i8, ptr %1, i64 2
  %9 = lshr i32 %0, 13
  %10 = trunc i32 %9 to i8
  %11 = and i8 %10, 1
  store i8 %11, ptr %8, align 1
  %12 = getelementptr inbounds i8, ptr %1, i64 3
  %13 = lshr i8 %3, 3
  %14 = and i8 %13, 1
  store i8 %14, ptr %12, align 1
  %15 = getelementptr inbounds i8, ptr %1, i64 4
  %16 = lshr i32 %0, 15
  %17 = trunc i32 %16 to i8
  %18 = and i8 %17, 1
  store i8 %18, ptr %15, align 1
  %19 = getelementptr inbounds i8, ptr %1, i64 5
  %20 = lshr i32 %0, 10
  %21 = trunc i32 %20 to i8
  %22 = and i8 %21, 1
  store i8 %22, ptr %19, align 1
  %23 = getelementptr inbounds i8, ptr %1, i64 6
  %24 = lshr i32 %0, 21
  %25 = trunc i32 %24 to i8
  %26 = and i8 %25, 1
  store i8 %26, ptr %23, align 1
  ret void
}